target datalayout = "e-m:e-p270:32:32-p271:32:32-p272:64:64-i64:64-i128:128-f80:128-n8:16:32:64-S128"
target triple = "x86_64-pc-linux-gnu"

%struct.AVProbeData = type { ptr, ptr, i32, ptr }

@.str.2 = private unnamed_addr constant [4 x i8] c"RSD\00", align 1

; Function Attrs: nounwind uwtable
define internal i32 @rsd_probe(ptr noundef %0) #0 {
  %2 = alloca i32, align 4
  %3 = alloca ptr, align 8
  store ptr %0, ptr %3, align 8, !tbaa !4
  %4 = load ptr, ptr %3, align 8, !tbaa !4
  %5 = getelementptr inbounds nuw %struct.AVProbeData, ptr %4, i32 0, i32 1
  %6 = load ptr, ptr %5, align 8, !tbaa !9
  %7 = call i32 @memcmp(ptr noundef %6, ptr noundef @.str.2, i64 noundef 3) #6
  %8 = icmp ne i32 %7, 0
  br i1 %8, label %27, label %9

9:                                                ; preds = %1
  %10 = load ptr, ptr %3, align 8, !tbaa !4
  %11 = getelementptr inbounds nuw %struct.AVProbeData, ptr %10, i32 0, i32 1
  %12 = load ptr, ptr %11, align 8, !tbaa !9
  %13 = getelementptr inbounds i8, ptr %12, i64 3
  %14 = load i8, ptr %13, align 1, !tbaa !13
  %15 = zext i8 %14 to i32
  %16 = sub nsw i32 %15, 48
  %17 = icmp slt i32 %16, 2
  br i1 %17, label %27, label %18

18:                                               ; preds = %9
  %19 = load ptr, ptr %3, align 8, !tbaa !4
  %20 = getelementptr inbounds nuw %struct.AVProbeData, ptr %19, i32 0, i32 1
  %21 = load ptr, ptr %20, align 8, !tbaa !9
  %22 = getelementptr inbounds i8, ptr %21, i64 3
  %23 = load i8, ptr %22, align 1, !tbaa !13
  %24 = zext i8 %23 to i32
  %25 = sub nsw i32 %24, 48
  %26 = icmp sgt i32 %25, 6
  br i1 %26, label %27, label %28

27:                                               ; preds = %18, %9, %1
  store i32 0, ptr %2, align 4
  br label %59

28:                                               ; preds = %18
  %29 = load ptr, ptr %3, align 8, !tbaa !4
  %30 = getelementptr inbounds nuw %struct.AVProbeData, ptr %29, i32 0, i32 1
  %31 = load ptr, ptr %30, align 8, !tbaa !9
  %32 = getelementptr inbounds i8, ptr %31, i64 8
  %33 = load i32, ptr %32, align 1, !tbaa !13
  %34 = icmp ugt i32 %33, 256
  br i1 %34, label %42, label %35

35:                                               ; preds = %28
  %36 = load ptr, ptr %3, align 8, !tbaa !4
  %37 = getelementptr inbounds nuw %struct.AVProbeData, ptr %36, i32 0, i32 1
  %38 = load ptr, ptr %37, align 8, !tbaa !9
  %39 = getelementptr inbounds i8, ptr %38, i64 8
  %40 = load i32, ptr %39, align 1, !tbaa !13
  %41 = icmp ne i32 %40, 0
  br i1 %41, label %43, label %42

42:                                               ; preds = %35, %28
  store i32 12, ptr %2, align 4
  br label %59

43:                                               ; preds = %35
  %44 = load ptr, ptr %3, align 8, !tbaa !4
  %45 = getelementptr inbounds nuw %struct.AVProbeData, ptr %44, i32 0, i32 1
  %46 = load ptr, ptr %45, align 8, !tbaa !9
  %47 = getelementptr inbounds i8, ptr %46, i64 16
  %48 = load i32, ptr %47, align 1, !tbaa !13
  %49 = icmp ugt i32 %48, 384000
  br i1 %49, label %57, label %50

50:                                               ; preds = %43
  %51 = load ptr, ptr %3, align 8, !tbaa !4
  %52 = getelementptr inbounds nuw %struct.AVProbeData, ptr %51, i32 0, i32 1
  %53 = load ptr, ptr %52, align 8, !tbaa !9
  %54 = getelementptr inbounds i8, ptr %53, i64 16
  %55 = load i32, ptr %54, align 1, !tbaa !13
  %56 = icmp ne i32 %55, 0
  br i1 %56, label %58, label %57

57:                                               ; preds = %50, %43
  store i32 12, ptr %2, align 4
  br label %59

58:                                               ; preds = %50
  store i32 100, ptr %2, align 4
  br label %59

59:                                               ; preds = %58, %57, %42, %27
  %60 = load i32, ptr %2, align 4
  ret i32 %60
}