; Function Attrs: mustprogress nofree norecurse nounwind willreturn memory(read, inaccessiblemem: none) uwtable
define internal range(i32 0, 101) i32 @rsd_probe(ptr noundef readonly captures(none) %0) #0 {
  %2 = getelementptr inbounds nuw i8, ptr %0, i64 8
  %3 = load ptr, ptr %2, align 8, !tbaa !4
  %bcmp = tail call i32 @bcmp(ptr noundef nonnull dereferenceable(3) %3, ptr noundef nonnull dereferenceable(3) @.str.2, i64 3)
  %.not = icmp eq i32 %bcmp, 0
  br i1 %.not, label %4, label %16

4:                                                ; preds = %1
  %5 = getelementptr inbounds nuw i8, ptr %3, i64 3
  %6 = load i8, ptr %5, align 1, !tbaa !11
  %7 = add i8 %6, -55
  %or.cond = icmp ult i8 %7, -5
  br i1 %or.cond, label %16, label %8

8:                                                ; preds = %4
  %9 = getelementptr inbounds nuw i8, ptr %3, i64 8
  %10 = load i32, ptr %9, align 1, !tbaa !11
  %11 = add i32 %10, -257
  %or.cond12 = icmp ult i32 %11, -256
  br i1 %or.cond12, label %16, label %12

12:                                               ; preds = %8
  %13 = getelementptr inbounds nuw i8, ptr %3, i64 16
  %14 = load i32, ptr %13, align 1, !tbaa !11
  %15 = add i32 %14, -384001
  %or.cond13 = icmp ult i32 %15, -384000
  %spec.select = select i1 %or.cond13, i32 12, i32 100
  br label %16

16:                                               ; preds = %12, %8, %1, %4
  %.0 = phi i32 [ 0, %4 ], [ 0, %1 ], [ 12, %8 ], [ %spec.select, %12 ]
  ret i32 %.0
}